target datalayout = "e-m:e-p270:32:32-p271:32:32-p272:64:64-i64:64-i128:128-f80:128-n8:16:32:64-S128"
target triple = "x86_64-pc-linux-gnu"

%struct.tls_buffer_st = type { ptr, i64, i64, i64, i64, i32, i32 }
%struct.tls_rl_record_st = type { i32, i32, i64, i64, i64, ptr, ptr, ptr, i16, [8 x i8] }
%struct.ossl_record_layer_st = type { ptr, ptr, i32, i32, i32, i32, i32, ptr, i16, ptr, ptr, ptr, i64, i32, [33 x %struct.tls_buffer_st], i64, i64, %struct.tls_buffer_st, [32 x %struct.tls_rl_record_st], i64, i64, i64, i32, ptr, i64, [8 x i8], i32, i32, i64, i32, ptr, ptr, i64, ptr, ptr, i32, i32, i32, i64, i64, i64, [64 x i8], i32, i32, i32, ptr, ptr, i32, i32, i64, ptr, ptr, %struct.dtls_bitmap_st, %struct.dtls_bitmap_st, i32, ptr, ptr, ptr, ptr, ptr, i64, ptr }
%struct.dtls_bitmap_st = type { i64, [8 x i8] }
%struct.ossl_param_st = type { ptr, i32, ptr, i64, i64 }

@.str = private unnamed_addr constant [43 x i8] c"../openssl/ssl/record/methods/tls_common.c\00", align 1
@.str.1 = private unnamed_addr constant [12 x i8] c"tls-version\00", align 1
@.str.2 = private unnamed_addr constant [13 x i8] c"tls-mac-size\00", align 1
@__func__.ossl_set_tls_provider_parameters = private unnamed_addr constant [33 x i8] c"ossl_set_tls_provider_parameters\00", align 1

; Function Attrs: nounwind uwtable
define i32 @ossl_set_tls_provider_parameters(ptr noundef %0, ptr noundef %1, ptr noundef %2, ptr noundef %3) #0 {
  %5 = alloca i32, align 4
  %6 = alloca ptr, align 8
  %7 = alloca ptr, align 8
  %8 = alloca ptr, align 8
  %9 = alloca ptr, align 8
  %10 = alloca [3 x %struct.ossl_param_st], align 16
  %11 = alloca ptr, align 8
  %12 = alloca i64, align 8
  %13 = alloca i32, align 4
  %14 = alloca %struct.ossl_param_st, align 8
  %15 = alloca %struct.ossl_param_st, align 8
  %16 = alloca %struct.ossl_param_st, align 8
  %17 = alloca i32, align 4
  store ptr %0, ptr %6, align 8, !tbaa !16
  store ptr %1, ptr %7, align 8, !tbaa !32
  store ptr %2, ptr %8, align 8, !tbaa !33
  store ptr %3, ptr %9, align 8, !tbaa !35
  call void @llvm.lifetime.start.p0(i64 120, ptr %10) #10
  call void @llvm.lifetime.start.p0(i64 8, ptr %11) #10
  %18 = getelementptr inbounds [3 x %struct.ossl_param_st], ptr %10, i64 0, i64 0
  store ptr %18, ptr %11, align 8, !tbaa !36
  call void @llvm.lifetime.start.p0(i64 8, ptr %12) #10
  store i64 0, ptr %12, align 8, !tbaa !38
  call void @llvm.lifetime.start.p0(i64 4, ptr %13) #10
  store i32 -1, ptr %13, align 4, !tbaa !18
  %19 = load ptr, ptr %8, align 8, !tbaa !33
  %20 = call i64 @EVP_CIPHER_get_flags(ptr noundef %19)
  %21 = and i64 %20, 2097152
  %22 = icmp eq i64 %21, 0
  br i1 %22, label %23, label %31

23:                                               ; preds = %4
  %24 = load ptr, ptr %6, align 8, !tbaa !16
  %25 = getelementptr inbounds nuw %struct.ossl_record_layer_st, ptr %24, i32 0, i32 42
  %26 = load i32, ptr %25, align 8, !tbaa !39
  %27 = icmp ne i32 %26, 0
  br i1 %27, label %31, label %28

28:                                               ; preds = %23
  %29 = load ptr, ptr %9, align 8, !tbaa !35
  %30 = call i32 @EVP_MD_get_size(ptr noundef %29)
  store i32 %30, ptr %13, align 4, !tbaa !18
  br label %31

31:                                               ; preds = %28, %23, %4
  %32 = load i32, ptr %13, align 4, !tbaa !18
  %33 = icmp sgt i32 %32, 0
  br i1 %33, label %34, label %37

34:                                               ; preds = %31
  %35 = load i32, ptr %13, align 4, !tbaa !18
  %36 = sext i32 %35 to i64
  store i64 %36, ptr %12, align 8, !tbaa !38
  br label %37

37:                                               ; preds = %34, %31
  %38 = load ptr, ptr %11, align 8, !tbaa !36
  %39 = getelementptr inbounds nuw %struct.ossl_param_st, ptr %38, i32 1
  store ptr %39, ptr %11, align 8, !tbaa !36
  call void @llvm.lifetime.start.p0(i64 40, ptr %14) #10
  %40 = load ptr, ptr %6, align 8, !tbaa !16
  %41 = getelementptr inbounds nuw %struct.ossl_record_layer_st, ptr %40, i32 0, i32 3
  call void @OSSL_PARAM_construct_int(ptr dead_on_unwind writable sret(%struct.ossl_param_st) align 8 %14, ptr noundef @.str.1, ptr noundef %41)
  call void @llvm.memcpy.p0.p0.i64(ptr align 8 %38, ptr align 8 %14, i64 40, i1 false), !tbaa.struct !40
  call void @llvm.lifetime.end.p0(i64 40, ptr %14) #10
  %42 = load ptr, ptr %11, align 8, !tbaa !36
  %43 = getelementptr inbounds nuw %struct.ossl_param_st, ptr %42, i32 1
  store ptr %43, ptr %11, align 8, !tbaa !36
  call void @llvm.lifetime.start.p0(i64 40, ptr %15) #10
  call void @OSSL_PARAM_construct_size_t(ptr dead_on_unwind writable sret(%struct.ossl_param_st) align 8 %15, ptr noundef @.str.2, ptr noundef %12)
  call void @llvm.memcpy.p0.p0.i64(ptr align 8 %42, ptr align 8 %15, i64 40, i1 false), !tbaa.struct !40
  call void @llvm.lifetime.end.p0(i64 40, ptr %15) #10
  %44 = load ptr, ptr %11, align 8, !tbaa !36
  call void @llvm.lifetime.start.p0(i64 40, ptr %16) #10
  call void @OSSL_PARAM_construct_end(ptr dead_on_unwind writable sret(%struct.ossl_param_st) align 8 %16)
  call void @llvm.memcpy.p0.p0.i64(ptr align 8 %44, ptr align 8 %16, i64 40, i1 false), !tbaa.struct !40
  call void @llvm.lifetime.end.p0(i64 40, ptr %16) #10
  %45 = load ptr, ptr %7, align 8, !tbaa !32
  %46 = getelementptr inbounds [3 x %struct.ossl_param_st], ptr %10, i64 0, i64 0
  %47 = call i32 @EVP_CIPHER_CTX_set_params(ptr noundef %45, ptr noundef %46)
  %48 = icmp ne i32 %47, 0
  br i1 %48, label %50, label %49

49:                                               ; preds = %37
  call void @ERR_new()
  call void @ERR_set_debug(ptr noundef @.str, i32 noundef 86, ptr noundef @__func__.ossl_set_tls_provider_parameters)
  call void (i32, i32, ptr, ...) @ERR_set_error(i32 noundef 20, i32 noundef 786691, ptr noundef null)
  store i32 0, ptr %5, align 4
  store i32 1, ptr %17, align 4
  br label %51

50:                                               ; preds = %37
  store i32 1, ptr %5, align 4
  store i32 1, ptr %17, align 4
  br label %51

51:                                               ; preds = %50, %49
  call void @llvm.lifetime.end.p0(i64 4, ptr %13) #10
  call void @llvm.lifetime.end.p0(i64 8, ptr %12) #10
  call void @llvm.lifetime.end.p0(i64 8, ptr %11) #10
  call void @llvm.lifetime.end.p0(i64 120, ptr %10) #10
  %52 = load i32, ptr %5, align 4
  ret i32 %52
}