; Function Attrs: nounwind uwtable
define range(i32 0, 2) i32 @ossl_set_tls_provider_parameters(ptr noundef %0, ptr noundef %1, ptr noundef %2, ptr noundef %3) local_unnamed_addr #0 {
  %5 = alloca [3 x %struct.ossl_param_st], align 16
  %6 = alloca i64, align 8
  %7 = alloca %struct.ossl_param_st, align 8
  %8 = alloca %struct.ossl_param_st, align 8
  call void @llvm.lifetime.start.p0(i64 120, ptr nonnull %5) #13
  call void @llvm.lifetime.start.p0(i64 8, ptr nonnull %6) #13
  store i64 0, ptr %6, align 8, !tbaa !24
  %9 = tail call i64 @EVP_CIPHER_get_flags(ptr noundef %2) #13
  %10 = and i64 %9, 2097152
  %11 = icmp eq i64 %10, 0
  br i1 %11, label %12, label %.thread

12:                                               ; preds = %4
  %13 = getelementptr inbounds nuw i8, ptr %0, i64 4272
  %14 = load i32, ptr %13, align 8, !tbaa !25
  %.not = icmp eq i32 %14, 0
  br i1 %.not, label %15, label %.thread

15:                                               ; preds = %12
  %16 = tail call i32 @EVP_MD_get_size(ptr noundef %3) #13
  %17 = icmp sgt i32 %16, 0
  br i1 %17, label %18, label %.thread

18:                                               ; preds = %15
  %19 = zext nneg i32 %16 to i64
  store i64 %19, ptr %6, align 8, !tbaa !24
  br label %.thread

.thread:                                          ; preds = %4, %12, %18, %15
  %20 = getelementptr inbounds nuw i8, ptr %5, i64 40
  %21 = getelementptr inbounds nuw i8, ptr %0, i64 20
  call void @OSSL_PARAM_construct_int(ptr dead_on_unwind nonnull writable sret(%struct.ossl_param_st) align 8 %5, ptr noundef nonnull @.str.1, ptr noundef nonnull %21) #13
  %22 = getelementptr inbounds nuw i8, ptr %5, i64 80
  call void @llvm.lifetime.start.p0(i64 40, ptr nonnull %7) #13
  call void @OSSL_PARAM_construct_size_t(ptr dead_on_unwind nonnull writable sret(%struct.ossl_param_st) align 8 %7, ptr noundef nonnull @.str.2, ptr noundef nonnull %6) #13
  call void @llvm.memcpy.p0.p0.i64(ptr noundef nonnull align 8 dereferenceable(40) %20, ptr noundef nonnull align 8 dereferenceable(40) %7, i64 40, i1 false), !tbaa.struct !26
  call void @llvm.lifetime.end.p0(i64 40, ptr nonnull %7) #13
  call void @llvm.lifetime.start.p0(i64 40, ptr nonnull %8) #13
  call void @OSSL_PARAM_construct_end(ptr dead_on_unwind nonnull writable sret(%struct.ossl_param_st) align 8 %8) #13
  call void @llvm.memcpy.p0.p0.i64(ptr noundef nonnull align 16 dereferenceable(40) %22, ptr noundef nonnull align 8 dereferenceable(40) %8, i64 40, i1 false), !tbaa.struct !26
  call void @llvm.lifetime.end.p0(i64 40, ptr nonnull %8) #13
  %23 = call i32 @EVP_CIPHER_CTX_set_params(ptr noundef %1, ptr noundef nonnull %5) #13
  %.not11 = icmp eq i32 %23, 0
  br i1 %.not11, label %24, label %25

24:                                               ; preds = %.thread
  call void @ERR_new() #13
  call void @ERR_set_debug(ptr noundef nonnull @.str, i32 noundef 86, ptr noundef nonnull @__func__.ossl_set_tls_provider_parameters) #13
  call void (i32, i32, ptr, ...) @ERR_set_error(i32 noundef 20, i32 noundef 786691, ptr noundef null) #13
  br label %25

25:                                               ; preds = %.thread, %24
  %.010 = phi i32 [ 0, %24 ], [ 1, %.thread ]
  call void @llvm.lifetime.end.p0(i64 8, ptr nonnull %6) #13
  call void @llvm.lifetime.end.p0(i64 120, ptr nonnull %5) #13
  ret i32 %.010
}